; Function Attrs: mustprogress uwtable
define hidden void @_ZN3smt9theory_bv23register_true_false_bitEij(ptr nocapture noundef nonnull readonly align 8 dereferenceable(1048) %this, i32 noundef %v, i32 noundef %idx) local_unnamed_addr #3 align 2 {
entry:
  %m_bits = getelementptr inbounds i8, ptr %this, i64 360
  %0 = load ptr, ptr %m_bits, align 8
  %idxprom.i = zext i32 %v to i64
  %arrayidx.i = getelementptr inbounds %class.svector.13, ptr %0, i64 %idxprom.i
  %1 = load ptr, ptr %arrayidx.i, align 8
  %idxprom.i4 = zext i32 %idx to i64
  %arrayidx.i5 = getelementptr inbounds %"class.sat::literal", ptr %1, i64 %idxprom.i4
  %2 = load i32, ptr %arrayidx.i5, align 4
  %3 = load i32, ptr @_ZN3smtL12true_literalE, align 4
  %m_zero_one_bits = getelementptr inbounds i8, ptr %this, i64 384
  %4 = load ptr, ptr %m_zero_one_bits, align 8
  %arrayidx.i7 = getelementptr inbounds %class.svector.19, ptr %4, i64 %idxprom.i
  %5 = load ptr, ptr %arrayidx.i7, align 8
  %cmp.i8 = icmp eq ptr %5, null
  br i1 %cmp.i8, label %if.then.i, label %lor.lhs.false.i

lor.lhs.false.i:                                  ; preds = %entry
  %arrayidx.i9 = getelementptr inbounds i8, ptr %5, i64 -4
  %6 = load i32, ptr %arrayidx.i9, align 4
  %arrayidx4.i = getelementptr inbounds i8, ptr %5, i64 -8
  %7 = load i32, ptr %arrayidx4.i, align 4
  %cmp5.i = icmp eq i32 %6, %7
  br i1 %cmp5.i, label %if.then.i, label %_ZN6vectorIN3smt9theory_bv12zero_one_bitELb0EjE9push_backEOS2_.exit

if.then.i:                                        ; preds = %lor.lhs.false.i, %entry
  tail call void @_ZN6vectorIN3smt9theory_bv12zero_one_bitELb0EjE13expand_vectorEv(ptr noundef nonnull align 8 dereferenceable(8) %arrayidx.i7)
  %.pre.i = load ptr, ptr %arrayidx.i7, align 8
  %arrayidx8.phi.trans.insert.i = getelementptr inbounds i8, ptr %.pre.i, i64 -4
  %.pre1.i = load i32, ptr %arrayidx8.phi.trans.insert.i, align 4
  br label %_ZN6vectorIN3smt9theory_bv12zero_one_bitELb0EjE9push_backEOS2_.exit

_ZN6vectorIN3smt9theory_bv12zero_one_bitELb0EjE9push_backEOS2_.exit: ; preds = %lor.lhs.false.i, %if.then.i
  %8 = phi i32 [ %.pre1.i, %if.then.i ], [ %6, %lor.lhs.false.i ]
  %9 = phi ptr [ %.pre.i, %if.then.i ], [ %5, %lor.lhs.false.i ]
  %cmp.i = icmp eq i32 %2, %3
  %bf.shl.i = select i1 %cmp.i, i32 -2147483648, i32 0
  %bf.value.i = and i32 %idx, 2147483647
  %bf.set5.i = or disjoint i32 %bf.shl.i, %bf.value.i
  %idx.ext.i = zext i32 %8 to i64
  %add.ptr.i = getelementptr inbounds %"struct.smt::theory_bv::zero_one_bit", ptr %9, i64 %idx.ext.i
  %ref.tmp.sroa.2.0.insert.ext = zext i32 %bf.set5.i to i64
  %ref.tmp.sroa.2.0.insert.shift = shl nuw i64 %ref.tmp.sroa.2.0.insert.ext, 32
  %ref.tmp.sroa.0.0.insert.insert = or disjoint i64 %ref.tmp.sroa.2.0.insert.shift, %idxprom.i
  store i64 %ref.tmp.sroa.0.0.insert.insert, ptr %add.ptr.i, align 4
  %10 = load ptr, ptr %arrayidx.i7, align 8
  %arrayidx10.i = getelementptr inbounds i8, ptr %10, i64 -4
  %11 = load i32, ptr %arrayidx10.i, align 4
  %inc.i = add i32 %11, 1
  store i32 %inc.i, ptr %arrayidx10.i, align 4
  ret void
}